target datalayout = "e-m:e-p270:32:32-p271:32:32-p272:64:64-i64:64-i128:128-f80:128-n8:16:32:64-S128"
target triple = "x86_64-pc-linux-gnu"

%struct.slurm_conf_t = type { i64, ptr, i16, ptr, ptr, ptr, ptr, ptr, i16, ptr, ptr, ptr, ptr, ptr, ptr, ptr, i16, ptr, ptr, ptr, ptr, i16, ptr, ptr, ptr, i64, ptr, ptr, ptr, ptr, i16, ptr, ptr, i16, i32, ptr, i32, ptr, i32, i32, ptr, ptr, i64, i64, ptr, i16, i16, ptr, i32, i32, ptr, i32, ptr, i32, i16, i16, i16, ptr, i16, i16, ptr, ptr, i32, i16, i16, ptr, i32, i16, ptr, ptr, ptr, ptr, i16, ptr, ptr, ptr, ptr, i32, ptr, ptr, ptr, ptr, i16, i16, ptr, i32, i32, i32, i16, i16, ptr, ptr, i16, ptr, ptr, i32, i32, i32, i32, i32, i64, i32, i32, i16, ptr, ptr, i32, ptr, ptr, ptr, i16, i32, ptr, ptr, i16, ptr, ptr, i32, i16, ptr, ptr, ptr, ptr, i32, i32, i16, i16, i32, ptr, i16, ptr, i32, i32, i32, i32, i32, i32, ptr, i16, ptr, ptr, i32, i16, ptr, i32, i16, i16, ptr, ptr, ptr, i16, ptr, ptr, ptr, ptr, i16, i16, ptr, i16, ptr, i16, ptr, i16, ptr, i16, ptr, ptr, ptr, ptr, i16, ptr, ptr, ptr, i32, ptr, i32, ptr, ptr, i16, ptr, ptr, i32, i16, ptr, ptr, i16, i16, ptr, i16, ptr, ptr, ptr, i32, ptr, i16, i16, ptr, ptr, ptr, ptr, ptr, ptr, ptr, ptr, i16, i32, i16, ptr, ptr, ptr, ptr, i32, ptr, ptr, ptr, i16, ptr, ptr, ptr, i16, ptr, i16, ptr, i16, i16, ptr }
%struct.slurm_msg = type { %struct.sockaddr_storage, ptr, i32, i32, i32, i8, i32, i8, i32, ptr, ptr, i32, ptr, ptr, i16, i8, i16, i16, %struct.forward, ptr, %struct.sockaddr_storage, ptr }
%struct.forward = type { %struct.slurm_node_alias_addrs_t, i16, i16, ptr, i32, i16, i16 }
%struct.slurm_node_alias_addrs_t = type { i64, ptr, ptr, i32, ptr }
%struct.sockaddr_storage = type { i16, [118 x i8], i64 }

@working_cluster_rec = external global ptr, align 8
@slurm_conf = external global %struct.slurm_conf_t, align 8

; Function Attrs: nounwind uwtable
define internal i32 @_send_message_controller(i32 noundef %0, ptr noundef %1) #0 {
  %3 = alloca i32, align 4
  %4 = alloca i32, align 4
  %5 = alloca ptr, align 8
  %6 = alloca i32, align 4
  %7 = alloca i32, align 4
  %8 = alloca %struct.slurm_msg, align 8
  %9 = alloca i32, align 4
  store i32 %0, ptr %4, align 4
  store ptr %1, ptr %5, align 8
  call void @llvm.lifetime.start.p0(i64 4, ptr %6) #6
  store i32 0, ptr %6, align 4
  call void @llvm.lifetime.start.p0(i64 4, ptr %7) #6
  store i32 -1, ptr %7, align 4
  call void @llvm.lifetime.start.p0(i64 424, ptr %8) #6
  %10 = load i32, ptr %4, align 4
  %11 = load ptr, ptr @working_cluster_rec, align 8
  %12 = call i32 @slurm_open_controller_conn_spec(i32 noundef %10, ptr noundef %11)
  store i32 %12, ptr %7, align 4
  %13 = icmp slt i32 %12, 0
  br i1 %13, label %14, label %19

14:                                               ; preds = %2
  br label %15

15:                                               ; preds = %14
  %16 = call ptr @__errno_location() #7
  store i32 1800, ptr %16, align 4
  store i32 -1, ptr %3, align 4
  store i32 1, ptr %9, align 4
  br label %73

17:                                               ; No predecessors!
  br label %18

18:                                               ; preds = %17
  br label %19

19:                                               ; preds = %18, %2
  %20 = load ptr, ptr %5, align 8
  %21 = load i32, ptr getelementptr inbounds nuw (%struct.slurm_conf_t, ptr @slurm_conf, i32 0, i32 173), align 8
  call void @slurm_msg_set_r_uid(ptr noundef %20, i32 noundef %21)
  %22 = load i32, ptr %7, align 4
  %23 = load ptr, ptr %5, align 8
  %24 = call i32 @slurm_send_node_msg(i32 noundef %22, ptr noundef %23)
  %25 = icmp slt i32 %24, 0
  br i1 %25, label %26, label %33

26:                                               ; preds = %19
  %27 = load i32, ptr %7, align 4
  %28 = call i32 @close(i32 noundef %27)
  br label %29

29:                                               ; preds = %26
  %30 = call ptr @__errno_location() #7
  store i32 1801, ptr %30, align 4
  store i32 -1, ptr %3, align 4
  store i32 1, ptr %9, align 4
  br label %73

31:                                               ; No predecessors!
  br label %32

32:                                               ; preds = %31
  br label %33

33:                                               ; preds = %32, %19
  call void @slurm_msg_t_init(ptr noundef %8)
  %34 = load i32, ptr %7, align 4
  %35 = call i32 @slurm_receive_msg(i32 noundef %34, ptr noundef %8, i32 noundef 0)
  store i32 %35, ptr %6, align 4
  %36 = icmp ne i32 %35, 0
  br i1 %36, label %37, label %40

37:                                               ; preds = %33
  call void @slurm_free_msg_members(ptr noundef %8)
  %38 = load i32, ptr %7, align 4
  %39 = call i32 @close(i32 noundef %38)
  store i32 1802, ptr %3, align 4
  store i32 1, ptr %9, align 4
  br label %73

40:                                               ; preds = %33
  %41 = load i32, ptr %7, align 4
  %42 = call i32 @close(i32 noundef %41)
  %43 = icmp ne i32 %42, 0
  br i1 %43, label %44, label %45

44:                                               ; preds = %40
  store i32 1803, ptr %6, align 4
  br label %59

45:                                               ; preds = %40
  %46 = getelementptr inbounds nuw %struct.slurm_msg, ptr %8, i32 0, i32 16
  %47 = load i16, ptr %46, align 4
  %48 = zext i16 %47 to i32
  %49 = icmp ne i32 %48, 8001
  br i1 %49, label %50, label %51

50:                                               ; preds = %45
  store i32 1000, ptr %6, align 4
  br label %58

51:                                               ; preds = %45
  %52 = getelementptr inbounds nuw %struct.slurm_msg, ptr %8, i32 0, i32 16
  %53 = load i16, ptr %52, align 4
  %54 = zext i16 %53 to i32
  %55 = getelementptr inbounds nuw %struct.slurm_msg, ptr %8, i32 0, i32 13
  %56 = load ptr, ptr %55, align 8
  %57 = call i32 @slurm_get_return_code(i32 noundef %54, ptr noundef %56)
  store i32 %57, ptr %6, align 4
  br label %58

58:                                               ; preds = %51, %50
  br label %59

59:                                               ; preds = %58, %44
  call void @slurm_free_msg_members(ptr noundef %8)
  %60 = load i32, ptr %6, align 4
  %61 = icmp ne i32 %60, 0
  br i1 %61, label %62, label %71

62:                                               ; preds = %59
  br label %63

63:                                               ; preds = %62
  %64 = load i32, ptr %6, align 4
  %65 = call ptr @__errno_location() #7
  store i32 %64, ptr %65, align 4
  %66 = load i32, ptr %6, align 4
  %67 = icmp ne i32 %66, 0
  %68 = select i1 %67, i32 -1, i32 0
  store i32 %68, ptr %3, align 4
  store i32 1, ptr %9, align 4
  br label %73

69:                                               ; No predecessors!
  br label %70

70:                                               ; preds = %69
  br label %71

71:                                               ; preds = %70, %59
  %72 = load i32, ptr %6, align 4
  store i32 %72, ptr %3, align 4
  store i32 1, ptr %9, align 4
  br label %73

73:                                               ; preds = %71, %63, %37, %29, %15
  call void @llvm.lifetime.end.p0(i64 424, ptr %8) #6
  call void @llvm.lifetime.end.p0(i64 4, ptr %7) #6
  call void @llvm.lifetime.end.p0(i64 4, ptr %6) #6
  %74 = load i32, ptr %3, align 4
  ret i32 %74
}