; Function Attrs: nounwind uwtable
define internal fastcc range(i32 -1, 1803) i32 @_send_message_controller(i32 noundef %0, ptr noundef nonnull %1) unnamed_addr #0 {
  %3 = alloca %struct.slurm_msg, align 8
  call void @llvm.lifetime.start.p0(i64 424, ptr nonnull %3) #6
  %4 = load ptr, ptr @working_cluster_rec, align 8
  %5 = tail call i32 @slurm_open_controller_conn_spec(i32 noundef %0, ptr noundef %4) #6
  %6 = icmp slt i32 %5, 0
  br i1 %6, label %7, label %9

7:                                                ; preds = %2
  %8 = tail call ptr @__errno_location() #7
  store i32 1800, ptr %8, align 4
  br label %31

9:                                                ; preds = %2
  %10 = load i32, ptr getelementptr inbounds nuw (i8, ptr @slurm_conf, i64 1152), align 8
  tail call void @slurm_msg_set_r_uid(ptr noundef nonnull %1, i32 noundef %10) #6
  %11 = tail call i32 @slurm_send_node_msg(i32 noundef %5, ptr noundef nonnull %1) #6
  %12 = icmp slt i32 %11, 0
  br i1 %12, label %13, label %16

13:                                               ; preds = %9
  %14 = tail call i32 @close(i32 noundef %5) #6
  %15 = tail call ptr @__errno_location() #7
  store i32 1801, ptr %15, align 4
  br label %31

16:                                               ; preds = %9
  call void @slurm_msg_t_init(ptr noundef nonnull %3) #6
  %17 = call i32 @slurm_receive_msg(i32 noundef %5, ptr noundef nonnull %3, i32 noundef 0) #6
  %.not = icmp eq i32 %17, 0
  br i1 %.not, label %20, label %18

18:                                               ; preds = %16
  call void @slurm_free_msg_members(ptr noundef nonnull %3) #6
  %19 = call i32 @close(i32 noundef %5) #6
  br label %31

20:                                               ; preds = %16
  %21 = call i32 @close(i32 noundef %5) #6
  %.not15 = icmp eq i32 %21, 0
  br i1 %.not15, label %22, label %.thread

22:                                               ; preds = %20
  %23 = getelementptr inbounds nuw i8, ptr %3, i64 212
  %24 = load i16, ptr %23, align 4
  %.not16 = icmp eq i16 %24, 8001
  br i1 %.not16, label %25, label %.thread

.thread:                                          ; preds = %20, %22
  %.0.ph = phi i32 [ 1000, %22 ], [ 1803, %20 ]
  call void @slurm_free_msg_members(ptr noundef nonnull %3) #6
  br label %29

25:                                               ; preds = %22
  %26 = getelementptr inbounds nuw i8, ptr %3, i64 200
  %27 = load ptr, ptr %26, align 8
  %28 = call i32 @slurm_get_return_code(i32 noundef 8001, ptr noundef %27) #6
  call void @slurm_free_msg_members(ptr noundef nonnull %3) #6
  %.not17 = icmp eq i32 %28, 0
  br i1 %.not17, label %31, label %29

29:                                               ; preds = %.thread, %25
  %.020 = phi i32 [ %.0.ph, %.thread ], [ %28, %25 ]
  %30 = tail call ptr @__errno_location() #7
  store i32 %.020, ptr %30, align 4
  br label %31

31:                                               ; preds = %25, %29, %18, %13, %7
  %.012 = phi i32 [ -1, %7 ], [ -1, %13 ], [ 1802, %18 ], [ -1, %29 ], [ 0, %25 ]
  call void @llvm.lifetime.end.p0(i64 424, ptr nonnull %3) #6
  ret i32 %.012
}